target datalayout = "e-m:e-p270:32:32-p271:32:32-p272:64:64-i64:64-i128:128-f80:128-n8:16:32:64-S128"
target triple = "x86_64-pc-linux-gnu"

%class.ptr_vector = type { %class.vector }
%class.vector = type { ptr }
%"struct.array::solver::axiom_record" = type { i32, i32, ptr, ptr }
%"struct.array::solver::var_data" = type { i8, i8, %class.ptr_vector, %class.ptr_vector, %class.ptr_vector }

; Function Attrs: mustprogress nounwind uwtable
define linkonce_odr hidden void @_ZN5array6solver12axiom_recordC2ENS1_6kind_tEPN3euf5enodeES5_(ptr noundef nonnull align 8 dereferenceable(24) %0, i32 noundef %1, ptr noundef %2, ptr noundef %3) unnamed_addr #6 comdat align 2 {
  %5 = alloca ptr, align 8
  %6 = alloca i32, align 4
  %7 = alloca ptr, align 8
  %8 = alloca ptr, align 8
  store ptr %0, ptr %5, align 8, !tbaa !463
  store i32 %1, ptr %6, align 4, !tbaa !464
  store ptr %2, ptr %7, align 8, !tbaa !175
  store ptr %3, ptr %8, align 8, !tbaa !175
  %9 = load ptr, ptr %5, align 8
  %10 = getelementptr inbounds nuw %"struct.array::solver::axiom_record", ptr %9, i32 0, i32 0
  %11 = load i32, ptr %6, align 4, !tbaa !464
  store i32 %11, ptr %10, align 8, !tbaa !466
  %12 = getelementptr inbounds nuw %"struct.array::solver::axiom_record", ptr %9, i32 0, i32 1
  store i32 0, ptr %12, align 4, !tbaa !469
  %13 = getelementptr inbounds nuw %"struct.array::solver::axiom_record", ptr %9, i32 0, i32 2
  %14 = load ptr, ptr %7, align 8, !tbaa !175
  store ptr %14, ptr %13, align 8, !tbaa !470
  %15 = getelementptr inbounds nuw %"struct.array::solver::axiom_record", ptr %9, i32 0, i32 3
  %16 = load ptr, ptr %8, align 8, !tbaa !175
  store ptr %16, ptr %15, align 8, !tbaa !471
  ret void
}

; Function Attrs: mustprogress nounwind uwtable
define linkonce_odr hidden noundef i32 @_ZNK6vectorIPN3euf5enodeELb0EjE4sizeEv(ptr noundef nonnull align 8 dereferenceable(8) %0) #6 comdat align 2 {
  %2 = alloca i32, align 4
  %3 = alloca ptr, align 8
  store ptr %0, ptr %3, align 8, !tbaa !144
  %4 = load ptr, ptr %3, align 8
  %5 = getelementptr inbounds nuw %class.vector, ptr %4, i32 0, i32 0
  %6 = load ptr, ptr %5, align 8, !tbaa !347
  %7 = icmp eq ptr %6, null
  br i1 %7, label %8, label %9

8:                                                ; preds = %1
  store i32 0, ptr %2, align 4
  br label %14

9:                                                ; preds = %1
  %10 = getelementptr inbounds nuw %class.vector, ptr %4, i32 0, i32 0
  %11 = load ptr, ptr %10, align 8, !tbaa !347
  %12 = getelementptr inbounds i32, ptr %11, i64 -1
  %13 = load i32, ptr %12, align 4, !tbaa !10
  store i32 %13, ptr %2, align 4
  br label %14

14:                                               ; preds = %9, %8
  %15 = load i32, ptr %2, align 4
  ret i32 %15
}

; Function Attrs: mustprogress uwtable
define linkonce_odr hidden void @_ZN5array6solver12select_axiomEPN3euf5enodeES3_(ptr dead_on_unwind noalias writable sret(%"struct.array::solver::axiom_record") align 8 %0, ptr noundef nonnull align 8 dereferenceable(536) %1, ptr noundef %2, ptr noundef %3) #4 comdat align 2 {
  %5 = alloca ptr, align 8
  %6 = alloca ptr, align 8
  %7 = alloca ptr, align 8
  store ptr %1, ptr %5, align 8, !tbaa !3
  store ptr %2, ptr %6, align 8, !tbaa !175
  store ptr %3, ptr %7, align 8, !tbaa !175
  %8 = load ptr, ptr %7, align 8, !tbaa !175
  %9 = load ptr, ptr %6, align 8, !tbaa !175
  call void @_ZN5array6solver12axiom_recordC2ENS1_6kind_tEPN3euf5enodeES5_(ptr noundef nonnull align 8 dereferenceable(24) %0, i32 noundef 1, ptr noundef %8, ptr noundef %9)
  ret void
}

; Function Attrs: mustprogress nounwind uwtable
define linkonce_odr hidden noundef ptr @_ZNK6vectorIPN3euf5enodeELb0EjE3endEv(ptr noundef nonnull align 8 dereferenceable(8) %0) #6 comdat align 2 {
  %2 = alloca ptr, align 8
  store ptr %0, ptr %2, align 8, !tbaa !144
  %3 = load ptr, ptr %2, align 8
  %4 = getelementptr inbounds nuw %class.vector, ptr %3, i32 0, i32 0
  %5 = load ptr, ptr %4, align 8, !tbaa !347
  %6 = call noundef i32 @_ZNK6vectorIPN3euf5enodeELb0EjE4sizeEv(ptr noundef nonnull align 8 dereferenceable(8) %3)
  %7 = zext i32 %6 to i64
  %8 = getelementptr inbounds nuw ptr, ptr %5, i64 %7
  ret ptr %8
}

; Function Attrs: mustprogress nounwind uwtable
define linkonce_odr hidden noundef ptr @_ZNK6vectorIPN3euf5enodeELb0EjE5beginEv(ptr noundef nonnull align 8 dereferenceable(8) %0) #6 comdat align 2 {
  %2 = alloca ptr, align 8
  store ptr %0, ptr %2, align 8, !tbaa !144
  %3 = load ptr, ptr %2, align 8
  %4 = getelementptr inbounds nuw %class.vector, ptr %3, i32 0, i32 0
  %5 = load ptr, ptr %4, align 8, !tbaa !347
  ret ptr %5
}

; Function Attrs: mustprogress uwtable
define hidden void @_ZN5array6solver23propagate_select_axiomsERKNS0_8var_dataEPN3euf5enodeE(ptr noundef nonnull align 8 dereferenceable(536) %0, ptr noundef nonnull align 8 dereferenceable(32) %1, ptr noundef %2) #4 align 2 {
  %4 = alloca ptr, align 8
  %5 = alloca ptr, align 8
  %6 = alloca ptr, align 8
  %7 = alloca ptr, align 8
  %8 = alloca ptr, align 8
  %9 = alloca ptr, align 8
  %10 = alloca ptr, align 8
  %11 = alloca %"struct.array::solver::axiom_record", align 8
  store ptr %0, ptr %4, align 8, !tbaa !3
  store ptr %1, ptr %5, align 8, !tbaa !168
  store ptr %2, ptr %6, align 8, !tbaa !175
  %12 = load ptr, ptr %4, align 8
  call void @llvm.lifetime.start.p0(i64 8, ptr %7) #3
  %13 = load ptr, ptr %5, align 8, !tbaa !168
  %14 = getelementptr inbounds nuw %"struct.array::solver::var_data", ptr %13, i32 0, i32 4
  store ptr %14, ptr %7, align 8, !tbaa !127
  call void @llvm.lifetime.start.p0(i64 8, ptr %8) #3
  %15 = load ptr, ptr %7, align 8, !tbaa !127
  %16 = call noundef ptr @_ZNK6vectorIPN3euf5enodeELb0EjE5beginEv(ptr noundef nonnull align 8 dereferenceable(8) %15)
  store ptr %16, ptr %8, align 8, !tbaa !337
  call void @llvm.lifetime.start.p0(i64 8, ptr %9) #3
  %17 = load ptr, ptr %7, align 8, !tbaa !127
  %18 = call noundef ptr @_ZNK6vectorIPN3euf5enodeELb0EjE3endEv(ptr noundef nonnull align 8 dereferenceable(8) %17)
  store ptr %18, ptr %9, align 8, !tbaa !337
  br label %19

19:                                               ; preds = %29, %3
  %20 = load ptr, ptr %8, align 8, !tbaa !337
  %21 = load ptr, ptr %9, align 8, !tbaa !337
  %22 = icmp ne ptr %20, %21
  br i1 %22, label %24, label %23

23:                                               ; preds = %19
  call void @llvm.lifetime.end.p0(i64 8, ptr %9) #3
  call void @llvm.lifetime.end.p0(i64 8, ptr %8) #3
  call void @llvm.lifetime.end.p0(i64 8, ptr %7) #3
  br label %32

24:                                               ; preds = %19
  call void @llvm.lifetime.start.p0(i64 8, ptr %10) #3
  %25 = load ptr, ptr %8, align 8, !tbaa !337
  %26 = load ptr, ptr %25, align 8, !tbaa !175
  store ptr %26, ptr %10, align 8, !tbaa !175
  call void @llvm.lifetime.start.p0(i64 24, ptr %11) #3
  %27 = load ptr, ptr %10, align 8, !tbaa !175
  %28 = load ptr, ptr %6, align 8, !tbaa !175
  call void @_ZN5array6solver12select_axiomEPN3euf5enodeES3_(ptr dead_on_unwind writable sret(%"struct.array::solver::axiom_record") align 8 %11, ptr noundef nonnull align 8 dereferenceable(536) %12, ptr noundef %27, ptr noundef %28)
  call void @_ZN5array6solver10push_axiomERKNS0_12axiom_recordE(ptr noundef nonnull align 8 dereferenceable(536) %12, ptr noundef nonnull align 8 dereferenceable(24) %11)
  call void @llvm.lifetime.end.p0(i64 24, ptr %11) #3
  call void @llvm.lifetime.end.p0(i64 8, ptr %10) #3
  br label %29

29:                                               ; preds = %24
  %30 = load ptr, ptr %8, align 8, !tbaa !337
  %31 = getelementptr inbounds nuw ptr, ptr %30, i32 1
  store ptr %31, ptr %8, align 8, !tbaa !337
  br label %19

32:                                               ; preds = %23
  ret void
}