; Function Attrs: mustprogress uwtable
define hidden void @_ZN5array6solver23propagate_select_axiomsERKNS0_8var_dataEPN3euf5enodeE(ptr noundef nonnull align 8 dereferenceable(536) %0, ptr noundef nonnull readonly align 8 captures(none) dereferenceable(32) %1, ptr noundef %2) local_unnamed_addr #3 align 2 {
  %4 = alloca %"struct.array::solver::axiom_record", align 8
  %5 = getelementptr inbounds nuw i8, ptr %1, i64 24
  %6 = load ptr, ptr %5, align 8, !tbaa !135
  %7 = icmp eq ptr %6, null
  br i1 %7, label %._crit_edge, label %_ZNK6vectorIPN3euf5enodeELb0EjE3endEv.exit

_ZNK6vectorIPN3euf5enodeELb0EjE3endEv.exit:       ; preds = %3
  %8 = getelementptr inbounds i8, ptr %6, i64 -4
  %9 = load i32, ptr %8, align 4, !tbaa !140
  %10 = zext i32 %9 to i64
  %11 = getelementptr inbounds nuw ptr, ptr %6, i64 %10
  %.not10 = icmp eq i32 %9, 0
  br i1 %.not10, label %._crit_edge, label %.lr.ph

.lr.ph:                                           ; preds = %_ZNK6vectorIPN3euf5enodeELb0EjE3endEv.exit
  %12 = getelementptr inbounds nuw i8, ptr %4, i64 4
  %13 = getelementptr inbounds nuw i8, ptr %4, i64 8
  %14 = getelementptr inbounds nuw i8, ptr %4, i64 16
  br label %15

._crit_edge:                                      ; preds = %15, %3, %_ZNK6vectorIPN3euf5enodeELb0EjE3endEv.exit
  ret void

15:                                               ; preds = %.lr.ph, %15
  %.011 = phi ptr [ %6, %.lr.ph ], [ %17, %15 ]
  %16 = load ptr, ptr %.011, align 8, !tbaa !174
  call void @llvm.lifetime.start.p0(i64 24, ptr nonnull %4) #20
  store i32 1, ptr %4, align 8, !tbaa !207, !alias.scope !406
  store i32 0, ptr %12, align 4, !tbaa !214, !alias.scope !406
  store ptr %2, ptr %13, align 8, !tbaa !215, !alias.scope !406
  store ptr %16, ptr %14, align 8, !tbaa !216, !alias.scope !406
  call void @_ZN5array6solver10push_axiomERKNS0_12axiom_recordE(ptr noundef nonnull align 8 dereferenceable(536) %0, ptr noundef nonnull align 8 dereferenceable(24) %4)
  call void @llvm.lifetime.end.p0(i64 24, ptr nonnull %4) #20
  %17 = getelementptr inbounds nuw i8, ptr %.011, i64 8
  %.not = icmp eq ptr %17, %11
  br i1 %.not, label %._crit_edge, label %15
}